target datalayout = "e-m:e-p270:32:32-p271:32:32-p272:64:64-i64:64-i128:128-f80:128-n8:16:32:64-S128"
target triple = "x86_64-pc-linux-gnu"

%class.JSON = type <{ ptr, ptr, ptr, ptr, ptr, i32, i32, i32, i8, i8, [2 x i8] }>

@.str.34 = private unnamed_addr constant [36 x i8] c"Got EOS when expecting %s (%s'%s').\00", align 1
@.str.35 = private unnamed_addr constant [8 x i8] c"one of \00", align 1
@.str.36 = private unnamed_addr constant [1 x i8] zeroinitializer, align 1
@.str.37 = private unnamed_addr constant [22 x i8] c"Expected %s (%s'%s').\00", align 1

; Function Attrs: mustprogress nounwind uwtable
define hidden noundef zeroext i8 @_ZN4JSON4nextEv(ptr noundef nonnull align 8 dereferenceable(54) %0) #1 align 2 {
  %2 = alloca ptr, align 8
  %3 = alloca i8, align 1
  store ptr %0, ptr %2, align 8
  %4 = load ptr, ptr %2, align 8
  %5 = getelementptr inbounds %class.JSON, ptr %4, i32 0, i32 3
  %6 = load ptr, ptr %5, align 8
  %7 = load i8, ptr %6, align 1
  store i8 %7, ptr %3, align 1
  %8 = load i8, ptr %3, align 1
  %9 = zext i8 %8 to i32
  %10 = icmp ne i32 %9, 0
  br i1 %10, label %11, label %15

11:                                               ; preds = %1
  %12 = getelementptr inbounds %class.JSON, ptr %4, i32 0, i32 3
  %13 = load ptr, ptr %12, align 8
  %14 = getelementptr inbounds i8, ptr %13, i32 1
  store ptr %14, ptr %12, align 8
  br label %15

15:                                               ; preds = %11, %1
  %16 = load i8, ptr %3, align 1
  ret i8 %16
}

; Function Attrs: mustprogress nounwind uwtable
define hidden noundef zeroext i8 @_ZN4JSON4peekEv(ptr noundef nonnull align 8 dereferenceable(54) %0) #1 align 2 {
  %2 = alloca ptr, align 8
  store ptr %0, ptr %2, align 8
  %3 = load ptr, ptr %2, align 8
  %4 = getelementptr inbounds %class.JSON, ptr %3, i32 0, i32 3
  %5 = load ptr, ptr %4, align 8
  %6 = load i8, ptr %5, align 1
  ret i8 %6
}

; Function Attrs: mustprogress nounwind uwtable
define hidden noundef i32 @_ZN4JSON10expect_anyEPKcS1_NS_10JSON_ERRORE(ptr noundef nonnull align 8 dereferenceable(54) %0, ptr noundef %1, ptr noundef %2, i32 noundef %3) #1 align 2 {
  %5 = alloca i32, align 4
  %6 = alloca ptr, align 8
  %7 = alloca ptr, align 8
  %8 = alloca ptr, align 8
  %9 = alloca i32, align 4
  %10 = alloca i64, align 8
  %11 = alloca i8, align 1
  %12 = alloca i64, align 8
  store ptr %0, ptr %6, align 8
  store ptr %1, ptr %7, align 8
  store ptr %2, ptr %8, align 8
  store i32 %3, ptr %9, align 4
  %13 = load ptr, ptr %6, align 8
  %14 = load ptr, ptr %7, align 8
  %15 = call i64 @strlen(ptr noundef %14) #8
  store i64 %15, ptr %10, align 8
  %16 = call noundef zeroext i8 @_ZN4JSON4peekEv(ptr noundef nonnull align 8 dereferenceable(54) %13)
  store i8 %16, ptr %11, align 1
  %17 = load i8, ptr %11, align 1
  %18 = zext i8 %17 to i32
  %19 = icmp eq i32 %18, 0
  br i1 %19, label %20, label %27

20:                                               ; preds = %4
  %21 = load i32, ptr %9, align 4
  %22 = load ptr, ptr %8, align 8
  %23 = load i64, ptr %10, align 8
  %24 = icmp ugt i64 %23, 1
  %25 = select i1 %24, ptr @.str.35, ptr @.str.36
  %26 = load ptr, ptr %7, align 8
  call void (ptr, i32, ptr, ...) @_ZN4JSON5errorENS_10JSON_ERROREPKcz(ptr noundef nonnull align 8 dereferenceable(54) %13, i32 noundef %21, ptr noundef @.str.34, ptr noundef %22, ptr noundef %25, ptr noundef %26)
  store i32 0, ptr %5, align 4
  br label %55

27:                                               ; preds = %4
  store i64 0, ptr %12, align 8
  br label %28

28:                                               ; preds = %45, %27
  %29 = load i64, ptr %12, align 8
  %30 = load i64, ptr %10, align 8
  %31 = icmp ult i64 %29, %30
  br i1 %31, label %32, label %48

32:                                               ; preds = %28
  %33 = load i8, ptr %11, align 1
  %34 = zext i8 %33 to i32
  %35 = load ptr, ptr %7, align 8
  %36 = load i64, ptr %12, align 8
  %37 = getelementptr inbounds i8, ptr %35, i64 %36
  %38 = load i8, ptr %37, align 1
  %39 = sext i8 %38 to i32
  %40 = icmp eq i32 %34, %39
  br i1 %40, label %41, label %44

41:                                               ; preds = %32
  %42 = call noundef zeroext i8 @_ZN4JSON4nextEv(ptr noundef nonnull align 8 dereferenceable(54) %13)
  %43 = zext i8 %42 to i32
  store i32 %43, ptr %5, align 4
  br label %55

44:                                               ; preds = %32
  br label %45

45:                                               ; preds = %44
  %46 = load i64, ptr %12, align 8
  %47 = add i64 %46, 1
  store i64 %47, ptr %12, align 8
  br label %28, !llvm.loop !12

48:                                               ; preds = %28
  %49 = load i32, ptr %9, align 4
  %50 = load ptr, ptr %8, align 8
  %51 = load i64, ptr %10, align 8
  %52 = icmp ugt i64 %51, 1
  %53 = select i1 %52, ptr @.str.35, ptr @.str.36
  %54 = load ptr, ptr %7, align 8
  call void (ptr, i32, ptr, ...) @_ZN4JSON5errorENS_10JSON_ERROREPKcz(ptr noundef nonnull align 8 dereferenceable(54) %13, i32 noundef %49, ptr noundef @.str.37, ptr noundef %50, ptr noundef %53, ptr noundef %54)
  store i32 -1, ptr %5, align 4
  br label %55

55:                                               ; preds = %48, %41, %20
  %56 = load i32, ptr %5, align 4
  ret i32 %56
}