; Function Attrs: mustprogress nounwind uwtable
define hidden noundef range(i32 -1, 256) i32 @_ZN4JSON10expect_anyEPKcS1_NS_10JSON_ERRORE(ptr nocapture noundef nonnull align 8 dereferenceable(54) %0, ptr noundef %1, ptr noundef %2, i32 noundef %3) local_unnamed_addr #1 align 2 {
  %5 = tail call i64 @strlen(ptr noundef nonnull dereferenceable(1) %1) #14
  %6 = getelementptr inbounds i8, ptr %0, i64 24
  %7 = load ptr, ptr %6, align 8
  %8 = load i8, ptr %7, align 1
  %9 = zext i8 %8 to i32
  %10 = icmp eq i8 %8, 0
  br i1 %10, label %11, label %.preheader

.preheader:                                       ; preds = %4
  %.not = icmp eq i64 %5, 0
  br i1 %.not, label %._crit_edge, label %.lr.ph

11:                                               ; preds = %4
  %12 = icmp ugt i64 %5, 1
  %13 = select i1 %12, ptr @.str.35, ptr @.str.36
  tail call void (ptr, i32, ptr, ...) @_ZN4JSON5errorENS_10JSON_ERROREPKcz(ptr noundef nonnull align 8 dereferenceable(54) %0, i32 noundef %3, ptr noundef nonnull @.str.34, ptr noundef %2, ptr noundef nonnull %13, ptr noundef %1)
  br label %23

14:                                               ; preds = %.lr.ph
  %15 = add nuw i64 %.020, 1
  %exitcond.not = icmp eq i64 %15, %5
  br i1 %exitcond.not, label %._crit_edge, label %.lr.ph, !llvm.loop !10

.lr.ph:                                           ; preds = %.preheader, %14
  %.020 = phi i64 [ %15, %14 ], [ 0, %.preheader ]
  %16 = getelementptr inbounds i8, ptr %1, i64 %.020
  %17 = load i8, ptr %16, align 1
  %18 = sext i8 %17 to i32
  %19 = icmp eq i32 %9, %18
  br i1 %19, label %_ZN4JSON4nextEv.exit, label %14

_ZN4JSON4nextEv.exit:                             ; preds = %.lr.ph
  %20 = getelementptr inbounds i8, ptr %7, i64 1
  store ptr %20, ptr %6, align 8
  br label %23

._crit_edge:                                      ; preds = %14, %.preheader
  %21 = icmp ugt i64 %5, 1
  %22 = select i1 %21, ptr @.str.35, ptr @.str.36
  tail call void (ptr, i32, ptr, ...) @_ZN4JSON5errorENS_10JSON_ERROREPKcz(ptr noundef nonnull align 8 dereferenceable(54) %0, i32 noundef %3, ptr noundef nonnull @.str.37, ptr noundef %2, ptr noundef nonnull %22, ptr noundef %1)
  br label %23

23:                                               ; preds = %._crit_edge, %_ZN4JSON4nextEv.exit, %11
  %.017 = phi i32 [ 0, %11 ], [ %9, %_ZN4JSON4nextEv.exit ], [ -1, %._crit_edge ]
  ret i32 %.017
}